; Function Attrs: nounwind uwtable
define hidden i32 @ERR_peek_last_error_line(ptr noundef writeonly captures(address_is_null) %0, ptr noundef writeonly captures(address_is_null) %1) local_unnamed_addr #0 {
  %3 = tail call ptr @CRYPTO_get_thread_local(i32 noundef 0) #17
  %4 = icmp eq ptr %3, null
  br i1 %4, label %5, label %err_get_state.exit.i

5:                                                ; preds = %2
  %calloc.i.i = tail call dereferenceable_or_null(400) ptr @calloc(i64 1, i64 400)
  %6 = icmp eq ptr %calloc.i.i, null
  br i1 %6, label %get_error_values.exit, label %7

7:                                                ; preds = %5
  %8 = tail call i32 @CRYPTO_set_thread_local(i32 noundef 0, ptr noundef nonnull %calloc.i.i, ptr noundef nonnull @err_state_free) #17
  %.not.i.i = icmp eq i32 %8, 0
  br i1 %.not.i.i, label %get_error_values.exit, label %err_get_state.exit.i

err_get_state.exit.i:                             ; preds = %7, %2
  %.06.i.i = phi ptr [ %3, %2 ], [ %calloc.i.i, %7 ]
  %9 = getelementptr inbounds nuw i8, ptr %.06.i.i, i64 388
  %10 = load i32, ptr %9, align 4, !tbaa !6
  %11 = getelementptr inbounds nuw i8, ptr %.06.i.i, i64 384
  %12 = load i32, ptr %11, align 8, !tbaa !12
  %13 = icmp eq i32 %10, %12
  br i1 %13, label %get_error_values.exit, label %14

14:                                               ; preds = %err_get_state.exit.i
  %15 = zext i32 %12 to i64
  %16 = getelementptr inbounds nuw [16 x %struct.err_error_st], ptr %.06.i.i, i64 0, i64 %15
  %17 = getelementptr inbounds nuw i8, ptr %16, i64 16
  %18 = load i32, ptr %17, align 8, !tbaa !13
  %19 = icmp ne ptr %0, null
  %20 = icmp ne ptr %1, null
  %or.cond.i = and i1 %19, %20
  br i1 %or.cond.i, label %21, label %get_error_values.exit

21:                                               ; preds = %14
  %22 = load ptr, ptr %16, align 8, !tbaa !19
  %23 = icmp eq ptr %22, null
  br i1 %23, label %.sink.split.i, label %24

24:                                               ; preds = %21
  %25 = getelementptr inbounds nuw i8, ptr %16, i64 20
  %26 = load i16, ptr %25, align 4, !tbaa !21
  %27 = zext i16 %26 to i32
  br label %.sink.split.i

.sink.split.i:                                    ; preds = %21, %24
  %.sink = phi ptr [ %22, %24 ], [ @.str.11, %21 ]
  %.sink.i = phi i32 [ %27, %24 ], [ 0, %21 ]
  store ptr %.sink, ptr %0, align 8, !tbaa !20
  store i32 %.sink.i, ptr %1, align 4, !tbaa !22
  br label %get_error_values.exit

get_error_values.exit:                            ; preds = %14, %.sink.split.i, %5, %7, %err_get_state.exit.i
  %.0.i = phi i32 [ 0, %err_get_state.exit.i ], [ 0, %5 ], [ 0, %7 ], [ %18, %.sink.split.i ], [ %18, %14 ]
  ret i32 %.0.i
}